; Function Attrs: mustprogress uwtable
define hidden noundef zeroext i1 @_ZN18OpenImageIO_v2_6_08PSDInput19validate_color_dataEv(ptr noundef nonnull align 8 dereferenceable(840) %this) local_unnamed_addr #5 align 2 {
entry:
  %color_mode = getelementptr inbounds i8, ptr %this, i64 674
  %0 = load i16, ptr %color_mode, align 2
  %cmp = icmp eq i16 %0, 8
  %m_color_data = getelementptr inbounds i8, ptr %this, i64 680
  %1 = load i32, ptr %m_color_data, align 8
  %cmp2 = icmp eq i32 %1, 0
  %or.cond = select i1 %cmp, i1 %cmp2, i1 false
  br i1 %or.cond, label %return.sink.split, label %if.end

if.end:                                           ; preds = %entry
  %cmp6 = icmp ne i16 %0, 2
  %cmp10.not = icmp eq i32 %1, 768
  %or.cond1 = select i1 %cmp6, i1 true, i1 %cmp10.not
  br i1 %or.cond1, label %return, label %return.sink.split

return.sink.split:                                ; preds = %if.end, %entry
  %.str.57.sink = phi ptr [ @.str.56, %entry ], [ @.str.57, %if.end ]
  tail call void @_ZNK18OpenImageIO_v2_6_010ImageInput8errorfmtIJEEEvPKcDpRKT_(ptr noundef nonnull align 8 dereferenceable(184) %this, ptr noundef nonnull %.str.57.sink)
  br label %return

return:                                           ; preds = %return.sink.split, %if.end
  %retval.0 = phi i1 [ true, %if.end ], [ false, %return.sink.split ]
  ret i1 %retval.0
}